
libmylibarm32.so:     file format elf32-littlearm


Disassembly of section .hash:

000000d4 <.hash>:
  d4:	00000011 	andeq	r0, r0, r1, lsl r0
  d8:	0000001f 	andeq	r0, r0, pc, lsl r0
  dc:	00000012 	andeq	r0, r0, r2, lsl r0
  e0:	0000000c 	andeq	r0, r0, ip
  e4:	00000014 	andeq	r0, r0, r4, lsl r0
  e8:	0000001e 	andeq	r0, r0, lr, lsl r0
  ec:	00000000 	andeq	r0, r0, r0
  f0:	0000000f 	andeq	r0, r0, pc
	...
  fc:	0000000e 	andeq	r0, r0, lr
 100:	0000001d 	andeq	r0, r0, sp, lsl r0
 104:	00000011 	andeq	r0, r0, r1, lsl r0
 108:	0000001c 	andeq	r0, r0, ip, lsl r0
 10c:	00000009 	andeq	r0, r0, r9
 110:	00000016 	andeq	r0, r0, r6, lsl r0
 114:	00000017 	andeq	r0, r0, r7, lsl r0
 118:	00000019 	andeq	r0, r0, r9, lsl r0
	...
 130:	00000003 	andeq	r0, r0, r3
 134:	00000000 	andeq	r0, r0, r0
 138:	00000005 	andeq	r0, r0, r5
 13c:	00000000 	andeq	r0, r0, r0
 140:	00000007 	andeq	r0, r0, r7
 144:	00000006 	andeq	r0, r0, r6
	...
 150:	00000004 	andeq	r0, r0, r4
 154:	00000000 	andeq	r0, r0, r0
 158:	0000000a 	andeq	r0, r0, sl
	...
 164:	00000008 	andeq	r0, r0, r8
	...
 170:	0000000b 	andeq	r0, r0, fp
 174:	00000010 	andeq	r0, r0, r0, lsl r0
 178:	00000015 	andeq	r0, r0, r5, lsl r0
 17c:	00000000 	andeq	r0, r0, r0
 180:	0000000d 	andeq	r0, r0, sp
 184:	00000013 	andeq	r0, r0, r3, lsl r0
 188:	00000000 	andeq	r0, r0, r0
 18c:	0000001a 	andeq	r0, r0, sl, lsl r0
 190:	00000018 	andeq	r0, r0, r8, lsl r0
 194:	00000000 	andeq	r0, r0, r0
 198:	0000001b 	andeq	r0, r0, fp, lsl r0

Disassembly of section .dynsym:

0000019c <.dynsym>:
	...
 1b0:	0000060c 	andeq	r0, r0, ip, lsl #12
 1b4:	00000000 	andeq	r0, r0, r0
 1b8:	00080003 	andeq	r0, r8, r3
 1bc:	00000000 	andeq	r0, r0, r0
 1c0:	00008b28 	andeq	r8, r0, r8, lsr #22
 1c4:	00000000 	andeq	r0, r0, r0
 1c8:	00120003 	andseq	r0, r2, r3
 1cc:	00000090 	muleq	r0, r0, r0
	...
 1d8:	00000012 	andeq	r0, r0, r2, lsl r0
 1dc:	00000069 	andeq	r0, r0, r9, rrx
	...
 1e8:	00000022 	andeq	r0, r0, r2, lsr #32
 1ec:	0000001c 	andeq	r0, r0, ip, lsl r0
	...
 1f8:	00000020 	andeq	r0, r0, r0, lsr #32
 1fc:	0000008c 	andeq	r0, r0, ip, lsl #1
 200:	0000081c 	andeq	r0, r0, ip, lsl r8
 204:	00000030 	andeq	r0, r0, r0, lsr r0
 208:	000a0012 	andeq	r0, sl, r2, lsl r0
 20c:	000000e1 	andeq	r0, r0, r1, ror #1
	...
 218:	00000012 	andeq	r0, r0, r2, lsl r0
 21c:	0000011f 	andeq	r0, r0, pc, lsl r1
 220:	00008c6c 	andeq	r8, r0, ip, ror #24
 224:	00000000 	andeq	r0, r0, r0
 228:	00160010 	andseq	r0, r6, r0, lsl r0
 22c:	000000d4 	ldrdeq	r0, [r0], -r4
	...
 238:	00000012 	andeq	r0, r0, r2, lsl r0
 23c:	000000c6 	andeq	r0, r0, r6, asr #1
	...
 248:	00000012 	andeq	r0, r0, r2, lsl r0
 24c:	0000012e 	andeq	r0, r0, lr, lsr #2
 250:	00008c74 	andeq	r8, r0, r4, ror ip
 254:	00000000 	andeq	r0, r0, r0
 258:	00160010 	andseq	r0, r6, r0, lsl r0
 25c:	0000010c 	andeq	r0, r0, ip, lsl #2
 260:	00008c6c 	andeq	r8, r0, ip, ror #24
 264:	00000000 	andeq	r0, r0, r0
 268:	00150010 	andseq	r0, r5, r0, lsl r0
 26c:	000000d9 	ldrdeq	r0, [r0], -r9
 270:	000009dc 	ldrdeq	r0, [r0], -ip
 274:	00000030 	andeq	r0, r0, r0, lsr r0
 278:	000a0012 	andeq	r0, sl, r2, lsl r0
 27c:	00000016 	andeq	r0, r0, r6, lsl r0
 280:	00000a6c 	andeq	r0, r0, ip, ror #20
 284:	00000000 	andeq	r0, r0, r0
 288:	000b0012 	andeq	r0, fp, r2, lsl r0
 28c:	0000012d 	andeq	r0, r0, sp, lsr #2
 290:	00008c74 	andeq	r8, r0, r4, ror ip
 294:	00000000 	andeq	r0, r0, r0
 298:	00160010 	andseq	r0, r6, r0, lsl r0
 29c:	000000b7 	strheq	r0, [r0], -r7
 2a0:	000008ac 	andeq	r0, r0, ip, lsr #17
 2a4:	00000130 	andeq	r0, r0, r0, lsr r1
 2a8:	000a0012 	andeq	r0, sl, r2, lsl r0
 2ac:	000000cd 	andeq	r0, r0, sp, asr #1
	...
 2b8:	00000012 	andeq	r0, r0, r2, lsl r0
 2bc:	000000e8 	andeq	r0, r0, r8, ror #1
 2c0:	00000a0c 	andeq	r0, r0, ip, lsl #20
 2c4:	00000060 	andeq	r0, r0, r0, rrx
 2c8:	000a0012 	andeq	r0, sl, r2, lsl r0
 2cc:	00000001 	andeq	r0, r0, r1
	...
 2d8:	00000020 	andeq	r0, r0, r0, lsr #32
 2dc:	00000038 	andeq	r0, r0, r8, lsr r0
	...
 2e8:	00000012 	andeq	r0, r0, r2, lsl r0
 2ec:	000000bf 	strheq	r0, [r0], -pc	; <UNPREDICTABLE>
	...
 2f8:	00000012 	andeq	r0, r0, r2, lsl r0
 2fc:	00000141 	andeq	r0, r0, r1, asr #2
 300:	00008c74 	andeq	r8, r0, r4, ror ip
 304:	00000000 	andeq	r0, r0, r0
 308:	00160010 	andseq	r0, r6, r0, lsl r0
 30c:	00000139 	andeq	r0, r0, r9, lsr r1
 310:	00008c74 	andeq	r8, r0, r4, ror ip
 314:	00000000 	andeq	r0, r0, r0
 318:	00160010 	andseq	r0, r6, r0, lsl r0
 31c:	00000113 	andeq	r0, r0, r3, lsl r1
 320:	00008c6c 	andeq	r8, r0, ip, ror #24
 324:	00000000 	andeq	r0, r0, r0
 328:	00160010 	andseq	r0, r6, r0, lsl r0
 32c:	000000f0 	strdeq	r0, [r0], -r0	; <UNPREDICTABLE>
 330:	0000087c 	andeq	r0, r0, ip, ror r8
 334:	00000030 	andeq	r0, r0, r0, lsr r0
 338:	000a0012 	andeq	r0, sl, r2, lsl r0
 33c:	00000078 	andeq	r0, r0, r8, ror r0
	...
 348:	00000020 	andeq	r0, r0, r0, lsr #32
 34c:	0000004f 	andeq	r0, r0, pc, asr #32
	...
 358:	00000020 	andeq	r0, r0, r0, lsr #32
 35c:	000000a7 	andeq	r0, r0, r7, lsr #1
 360:	0000084c 	andeq	r0, r0, ip, asr #16
 364:	00000030 	andeq	r0, r0, r0, lsr r0
 368:	000a0012 	andeq	r0, sl, r2, lsl r0
 36c:	00000010 	andeq	r0, r0, r0, lsl r0
 370:	0000060c 	andeq	r0, r0, ip, lsl #12
 374:	00000000 	andeq	r0, r0, r0
 378:	00080012 	andeq	r0, r8, r2, lsl r0
 37c:	000000ab 	andeq	r0, r0, fp, lsr #1
 380:	00008c70 	andeq	r8, r0, r0, ror ip
 384:	00000004 	andeq	r0, r0, r4
 388:	00160011 	andseq	r0, r6, r1, lsl r0

Disassembly of section .dynstr:

0000038c <.dynstr>:
 38c:	675f5f00 	ldrbvs	r5, [pc, -r0, lsl #30]
 390:	5f6e6f6d 	svcpl	0x006e6f6d
 394:	72617473 	rsbvc	r7, r1, #1929379840	; 0x73000000
 398:	005f5f74 	subseq	r5, pc, r4, ror pc	; <UNPREDICTABLE>
 39c:	696e695f 	stmdbvs	lr!, {r0, r1, r2, r3, r4, r6, r8, fp, sp, lr}^
 3a0:	665f0074 			; <UNDEFINED> instruction: 0x665f0074
 3a4:	00696e69 	rsbeq	r6, r9, r9, ror #28
 3a8:	4d54495f 	ldclmi	9, cr4, [r4, #-380]	; 0xfffffe84
 3ac:	7265645f 	rsbvc	r6, r5, #1593835520	; 0x5f000000
 3b0:	73696765 	cmnvc	r9, #26476544	; 0x1940000
 3b4:	54726574 	ldrbtpl	r6, [r2], #-1396	; 0xfffffa8c
 3b8:	6f6c434d 	svcvs	0x006c434d
 3bc:	6154656e 	cmpvs	r4, lr, ror #10
 3c0:	00656c62 	rsbeq	r6, r5, r2, ror #24
 3c4:	65615f5f 	strbvs	r5, [r1, #-3935]!	; 0xfffff0a1
 3c8:	5f696261 	svcpl	0x00696261
 3cc:	69776e75 	ldmdbvs	r7!, {r0, r2, r4, r5, r6, r9, sl, fp, sp, lr}^
 3d0:	635f646e 	cmpvs	pc, #1845493760	; 0x6e000000
 3d4:	705f7070 	subsvc	r7, pc, r0, ror r0	; <UNPREDICTABLE>
 3d8:	5f003172 	svcpl	0x00003172
 3dc:	5f4d5449 	svcpl	0x004d5449
 3e0:	69676572 	stmdbvs	r7!, {r1, r4, r5, r6, r8, sl, sp, lr}^
 3e4:	72657473 	rsbvc	r7, r5, #1929379840	; 0x73000000
 3e8:	6c434d54 	mcrrvs	13, 5, r4, r3, cr4
 3ec:	54656e6f 	strbtpl	r6, [r5], #-3695	; 0xfffff191
 3f0:	656c6261 	strbvs	r6, [ip, #-609]!	; 0xfffffd9f
 3f4:	635f5f00 	cmpvs	pc, #0, 30
 3f8:	665f6178 			; <UNDEFINED> instruction: 0x665f6178
 3fc:	6c616e69 	stclvs	14, cr6, [r1], #-420	; 0xfffffe5c
 400:	00657a69 	rsbeq	r7, r5, r9, ror #20
 404:	5f764a5f 	svcpl	0x00764a5f
 408:	69676552 	stmdbvs	r7!, {r1, r4, r6, r8, sl, sp, lr}^
 40c:	72657473 	rsbvc	r7, r5, #1929379840	; 0x73000000
 410:	73616c43 	cmnvc	r1, #17152	; 0x4300
 414:	00736573 	rsbseq	r6, r3, r3, ror r5
 418:	00646461 	rsbeq	r6, r4, r1, ror #8
 41c:	65615f5f 	strbvs	r5, [r1, #-3935]!	; 0xfffff0a1
 420:	5f696261 	svcpl	0x00696261
 424:	69776e75 	ldmdbvs	r7!, {r0, r2, r4, r5, r6, r9, sl, fp, sp, lr}^
 428:	635f646e 	cmpvs	pc, #1845493760	; 0x6e000000
 42c:	705f7070 	subsvc	r7, pc, r0, ror r0	; <UNPREDICTABLE>
 430:	73003072 	movwvc	r3, #114	; 0x72
 434:	67006275 	smlsdxvs	r0, r5, r2, r6
 438:	61626f6c 	cmnvs	r2, ip, ror #30
 43c:	75665f6c 	strbvc	r5, [r6, #-3948]!	; 0xfffff094
 440:	6d00636e 	stcvs	3, cr6, [r0, #-440]	; 0xfffffe48
 444:	5f687461 	svcpl	0x00687461
 448:	6d00706f 	stcvs	0, cr7, [r0, #-444]	; 0xfffffe44
 44c:	65736d65 	ldrbvs	r6, [r3, #-3429]!	; 0xfffff29b
 450:	656d0074 	strbvs	r0, [sp, #-116]!	; 0xffffff8c
 454:	7970636d 	ldmdbvc	r0!, {r0, r2, r3, r5, r6, r8, r9, sp, lr}^
 458:	6c616d00 	stclvs	13, cr6, [r1], #-0
 45c:	00636f6c 	rsbeq	r6, r3, ip, ror #30
 460:	65657266 	strbvs	r7, [r5, #-614]!	; 0xfffffd9a
 464:	73696400 	cmnvc	r9, #0, 8
 468:	79616c70 	stmdbvc	r1!, {r4, r5, r6, sl, fp, sp, lr}^
 46c:	69727000 	ldmdbvs	r2!, {ip, sp, lr}^
 470:	0066746e 	rsbeq	r7, r6, lr, ror #8
 474:	5f646461 	svcpl	0x00646461
 478:	5f646e61 	svcpl	0x00646e61
 47c:	006c756d 	rsbeq	r7, ip, sp, ror #10
 480:	6762696c 	strbvs	r6, [r2, -ip, ror #18]!
 484:	735f6363 	cmpvc	pc, #-1946157055	; 0x8c000001
 488:	2e6f732e 	cdpcs	3, 6, cr7, cr15, cr14, {1}
 48c:	696c0031 	stmdbvs	ip!, {r0, r4, r5}^
 490:	732e6362 	teqvc	lr, #-2013265919	; 0x88000001
 494:	00362e6f 	eorseq	r2, r6, pc, ror #28
 498:	6164655f 	cmnvs	r4, pc, asr r5
 49c:	5f006174 	svcpl	0x00006174
 4a0:	7373625f 	cmnvc	r3, #-268435451	; 0xf0000005
 4a4:	6174735f 	cmnvs	r4, pc, asr r3
 4a8:	5f007472 	svcpl	0x00007472
 4ac:	7373625f 	cmnvc	r3, #-268435451	; 0xf0000005
 4b0:	6174735f 	cmnvs	r4, pc, asr r3
 4b4:	5f5f7472 	svcpl	0x005f7472
 4b8:	625f5f00 	subsvs	r5, pc, #0, 30
 4bc:	655f7373 	ldrbvs	r7, [pc, #-883]	; 151 <_init-0x4bb>
 4c0:	5f5f646e 	svcpl	0x005f646e
 4c4:	655f5f00 	ldrbvs	r5, [pc, #-3840]	; fffff5cc <__bss_end__+0xffff6958>
 4c8:	5f5f646e 	svcpl	0x005f646e
 4cc:	6e655f00 	cdpvs	15, 6, cr5, cr5, cr0, {0}
 4d0:	4c470064 	mcrrmi	0, 6, r0, r7, cr4
 4d4:	5f434249 	svcpl	0x00434249
 4d8:	00342e32 	eorseq	r2, r4, r2, lsr lr
 4dc:	5f434347 	svcpl	0x00434347
 4e0:	00352e33 	eorseq	r2, r5, r3, lsr lr

Disassembly of section .gnu.version:

000004e4 <.gnu.version>:
 4e4:	00000000 	andeq	r0, r0, r0
 4e8:	00020000 	andeq	r0, r2, r0
 4ec:	00000003 	andeq	r0, r0, r3
 4f0:	00030001 	andeq	r0, r3, r1
 4f4:	00030001 	andeq	r0, r3, r1
 4f8:	00010003 	andeq	r0, r1, r3
 4fc:	00010001 	andeq	r0, r1, r1
 500:	00010001 	andeq	r0, r1, r1
 504:	00030001 	andeq	r0, r3, r1
 508:	00000001 	andeq	r0, r0, r1
 50c:	00030002 	andeq	r0, r3, r2
 510:	00010001 	andeq	r0, r1, r1
 514:	00010001 	andeq	r0, r1, r1
 518:	00000000 	andeq	r0, r0, r0
 51c:	00010001 	andeq	r0, r1, r1
 520:	Address 0x00000520 is out of bounds.


Disassembly of section .gnu.version_r:

00000524 <.gnu.version_r>:
 524:	00010001 	andeq	r0, r1, r1
 528:	00000102 	andeq	r0, r0, r2, lsl #2
 52c:	00000010 	andeq	r0, r0, r0, lsl r0
 530:	00000020 	andeq	r0, r0, r0, lsr #32
 534:	0d696914 	stcleq	9, cr6, [r9, #-80]!	; 0xffffffb0
 538:	00030000 	andeq	r0, r3, r0
 53c:	00000146 	andeq	r0, r0, r6, asr #2
 540:	00000000 	andeq	r0, r0, r0
 544:	00010001 	andeq	r0, r1, r1
 548:	000000f4 	strdeq	r0, [r0], -r4
 54c:	00000010 	andeq	r0, r0, r0, lsl r0
 550:	00000000 	andeq	r0, r0, r0
 554:	0b792655 	bleq	1e49eb0 <__bss_end__+0x1e4123c>
 558:	00020000 	andeq	r0, r2, r0
 55c:	00000150 	andeq	r0, r0, r0, asr r1
 560:	00000000 	andeq	r0, r0, r0

Disassembly of section .rel.dyn:

00000564 <.rel.dyn>:
 564:	00008b20 	andeq	r8, r0, r0, lsr #22
 568:	00000017 	andeq	r0, r0, r7, lsl r0
 56c:	00008b24 	andeq	r8, r0, r4, lsr #22
 570:	00000017 	andeq	r0, r0, r7, lsl r0
 574:	00008c68 	andeq	r8, r0, r8, ror #24
 578:	00000017 	andeq	r0, r0, r7, lsl r0
 57c:	00008c44 	andeq	r8, r0, r4, asr #24
 580:	00000415 	andeq	r0, r0, r5, lsl r4
 584:	00008c48 	andeq	r8, r0, r8, asr #24
 588:	00000515 	andeq	r0, r0, r5, lsl r5
 58c:	00008c4c 	andeq	r8, r0, ip, asr #24
 590:	00000615 	andeq	r0, r0, r5, lsl r6
 594:	00008c50 	andeq	r8, r0, r0, asr ip
 598:	00001315 	andeq	r1, r0, r5, lsl r3
 59c:	00008c54 	andeq	r8, r0, r4, asr ip
 5a0:	00001915 	andeq	r1, r0, r5, lsl r9
 5a4:	00008c58 	andeq	r8, r0, r8, asr ip
 5a8:	00001a15 	andeq	r1, r0, r5, lsl sl
 5ac:	00008c5c 	andeq	r8, r0, ip, asr ip
 5b0:	00001b15 	andeq	r1, r0, r5, lsl fp
 5b4:	00008c60 	andeq	r8, r0, r0, ror #24
 5b8:	00001c15 	andeq	r1, r0, r5, lsl ip
 5bc:	00008c64 	andeq	r8, r0, r4, ror #24
 5c0:	00001e15 	andeq	r1, r0, r5, lsl lr

Disassembly of section .rel.plt:

000005c4 <.rel.plt>:
 5c4:	00008c20 	andeq	r8, r0, r0, lsr #24
 5c8:	00000416 	andeq	r0, r0, r6, lsl r4
 5cc:	00008c24 	andeq	r8, r0, r4, lsr #24
 5d0:	00000616 	andeq	r0, r0, r6, lsl r6
 5d4:	00008c28 	andeq	r8, r0, r8, lsr #24
 5d8:	00000716 	andeq	r0, r0, r6, lsl r7
 5dc:	00008c2c 	andeq	r8, r0, ip, lsr #24
 5e0:	00000916 	andeq	r0, r0, r6, lsl r9
 5e4:	00008c30 	andeq	r8, r0, r0, lsr ip
 5e8:	00000a16 	andeq	r0, r0, r6, lsl sl
 5ec:	00008c34 	andeq	r8, r0, r4, lsr ip
 5f0:	00001116 	andeq	r1, r0, r6, lsl r1
 5f4:	00008c38 	andeq	r8, r0, r8, lsr ip
 5f8:	00001316 	andeq	r1, r0, r6, lsl r3
 5fc:	00008c3c 	andeq	r8, r0, ip, lsr ip
 600:	00001516 	andeq	r1, r0, r6, lsl r5
 604:	00008c40 	andeq	r8, r0, r0, asr #24
 608:	00001916 	andeq	r1, r0, r6, lsl r9

Disassembly of section .init:

0000060c <_init>:
 60c:	e92d4008 	push	{r3, lr}
 610:	eb000020 	bl	698 <call_weak_fn>
 614:	e8bd8008 	pop	{r3, pc}

Disassembly of section .plt:

00000618 <.plt>:
 618:	e52de004 	push	{lr}		; (str lr, [sp, #-4]!)
 61c:	e59fe004 	ldr	lr, [pc, #4]	; 628 <_init+0x1c>
 620:	e08fe00e 	add	lr, pc, lr
 624:	e5bef008 	ldr	pc, [lr, #8]!
 628:	000085ec 	andeq	r8, r0, ip, ror #11
 62c:	e28fc600 	add	ip, pc, #0, 12
 630:	e28cca08 	add	ip, ip, #8, 20	; 0x8000
 634:	e5bcf5ec 	ldr	pc, [ip, #1516]!	; 0x5ec
 638:	e28fc600 	add	ip, pc, #0, 12
 63c:	e28cca08 	add	ip, ip, #8, 20	; 0x8000
 640:	e5bcf5e4 	ldr	pc, [ip, #1508]!	; 0x5e4
 644:	e28fc600 	add	ip, pc, #0, 12
 648:	e28cca08 	add	ip, ip, #8, 20	; 0x8000
 64c:	e5bcf5dc 	ldr	pc, [ip, #1500]!	; 0x5dc
 650:	e28fc600 	add	ip, pc, #0, 12
 654:	e28cca08 	add	ip, ip, #8, 20	; 0x8000
 658:	e5bcf5d4 	ldr	pc, [ip, #1492]!	; 0x5d4
 65c:	e28fc600 	add	ip, pc, #0, 12
 660:	e28cca08 	add	ip, ip, #8, 20	; 0x8000
 664:	e5bcf5cc 	ldr	pc, [ip, #1484]!	; 0x5cc
 668:	e28fc600 	add	ip, pc, #0, 12
 66c:	e28cca08 	add	ip, ip, #8, 20	; 0x8000
 670:	e5bcf5c4 	ldr	pc, [ip, #1476]!	; 0x5c4
 674:	e28fc600 	add	ip, pc, #0, 12
 678:	e28cca08 	add	ip, ip, #8, 20	; 0x8000
 67c:	e5bcf5bc 	ldr	pc, [ip, #1468]!	; 0x5bc
 680:	e28fc600 	add	ip, pc, #0, 12
 684:	e28cca08 	add	ip, ip, #8, 20	; 0x8000
 688:	e5bcf5b4 	ldr	pc, [ip, #1460]!	; 0x5b4
 68c:	e28fc600 	add	ip, pc, #0, 12
 690:	e28cca08 	add	ip, ip, #8, 20	; 0x8000
 694:	e5bcf5ac 	ldr	pc, [ip, #1452]!	; 0x5ac

Disassembly of section .text:

00000698 <call_weak_fn>:
 698:	e59f3014 	ldr	r3, [pc, #20]	; 6b4 <call_weak_fn+0x1c>
 69c:	e59f2014 	ldr	r2, [pc, #20]	; 6b8 <call_weak_fn+0x20>
 6a0:	e08f3003 	add	r3, pc, r3
 6a4:	e7932002 	ldr	r2, [r3, r2]
 6a8:	e3520000 	cmp	r2, #0
 6ac:	012fff1e 	bxeq	lr
 6b0:	eaffffef 	b	674 <_init+0x68>
 6b4:	0000856c 	andeq	r8, r0, ip, ror #10
 6b8:	0000003c 	andeq	r0, r0, ip, lsr r0

000006bc <deregister_tm_clones>:
 6bc:	e92d4008 	push	{r3, lr}
 6c0:	e59f3038 	ldr	r3, [pc, #56]	; 700 <deregister_tm_clones+0x44>
 6c4:	e59f0038 	ldr	r0, [pc, #56]	; 704 <deregister_tm_clones+0x48>
 6c8:	e08f3003 	add	r3, pc, r3
 6cc:	e08f0000 	add	r0, pc, r0
 6d0:	e2833003 	add	r3, r3, #3
 6d4:	e0603003 	rsb	r3, r0, r3
 6d8:	e3530006 	cmp	r3, #6
 6dc:	e59f3024 	ldr	r3, [pc, #36]	; 708 <deregister_tm_clones+0x4c>
 6e0:	e08f3003 	add	r3, pc, r3
 6e4:	98bd8008 	popls	{r3, pc}
 6e8:	e59f201c 	ldr	r2, [pc, #28]	; 70c <deregister_tm_clones+0x50>
 6ec:	e7933002 	ldr	r3, [r3, r2]
 6f0:	e3530000 	cmp	r3, #0
 6f4:	08bd8008 	popeq	{r3, pc}
 6f8:	e12fff33 	blx	r3
 6fc:	e8bd8008 	pop	{r3, pc}
 700:	0000859c 	muleq	r0, ip, r5
 704:	00008598 	muleq	r0, r8, r5
 708:	0000852c 	andeq	r8, r0, ip, lsr #10
 70c:	00000034 	andeq	r0, r0, r4, lsr r0

00000710 <register_tm_clones>:
 710:	e92d4008 	push	{r3, lr}
 714:	e59f0040 	ldr	r0, [pc, #64]	; 75c <register_tm_clones+0x4c>
 718:	e59f3040 	ldr	r3, [pc, #64]	; 760 <register_tm_clones+0x50>
 71c:	e08f0000 	add	r0, pc, r0
 720:	e08f3003 	add	r3, pc, r3
 724:	e0603003 	rsb	r3, r0, r3
 728:	e1a03143 	asr	r3, r3, #2
 72c:	e59f2030 	ldr	r2, [pc, #48]	; 764 <register_tm_clones+0x54>
 730:	e0833fa3 	add	r3, r3, r3, lsr #31
 734:	e1b030c3 	asrs	r3, r3, #1
 738:	e08f2002 	add	r2, pc, r2
 73c:	08bd8008 	popeq	{r3, pc}
 740:	e59f1020 	ldr	r1, [pc, #32]	; 768 <register_tm_clones+0x58>
 744:	e7922001 	ldr	r2, [r2, r1]
 748:	e3520000 	cmp	r2, #0
 74c:	08bd8008 	popeq	{r3, pc}
 750:	e1a01003 	mov	r1, r3
 754:	e12fff32 	blx	r2
 758:	e8bd8008 	pop	{r3, pc}
 75c:	00008548 	andeq	r8, r0, r8, asr #10
 760:	00008544 	andeq	r8, r0, r4, asr #10
 764:	000084d4 	ldrdeq	r8, [r0], -r4
 768:	00000048 	andeq	r0, r0, r8, asr #32

0000076c <__do_global_dtors_aux>:
 76c:	e59f204c 	ldr	r2, [pc, #76]	; 7c0 <__do_global_dtors_aux+0x54>
 770:	e92d4008 	push	{r3, lr}
 774:	e08f2002 	add	r2, pc, r2
 778:	e5d22000 	ldrb	r2, [r2]
 77c:	e59f3040 	ldr	r3, [pc, #64]	; 7c4 <__do_global_dtors_aux+0x58>
 780:	e3520000 	cmp	r2, #0
 784:	e08f3003 	add	r3, pc, r3
 788:	18bd8008 	popne	{r3, pc}
 78c:	e59f2034 	ldr	r2, [pc, #52]	; 7c8 <__do_global_dtors_aux+0x5c>
 790:	e7933002 	ldr	r3, [r3, r2]
 794:	e3530000 	cmp	r3, #0
 798:	0a000002 	beq	7a8 <__do_global_dtors_aux+0x3c>
 79c:	e59f3028 	ldr	r3, [pc, #40]	; 7cc <__do_global_dtors_aux+0x60>
 7a0:	e79f0003 	ldr	r0, [pc, r3]
 7a4:	ebffffa0 	bl	62c <_init+0x20>
 7a8:	ebffffc3 	bl	6bc <deregister_tm_clones>
 7ac:	e59f301c 	ldr	r3, [pc, #28]	; 7d0 <__do_global_dtors_aux+0x64>
 7b0:	e3a02001 	mov	r2, #1
 7b4:	e08f3003 	add	r3, pc, r3
 7b8:	e5c32000 	strb	r2, [r3]
 7bc:	e8bd8008 	pop	{r3, pc}
 7c0:	000084f0 	strdeq	r8, [r0], -r0
 7c4:	00008488 	andeq	r8, r0, r8, lsl #9
 7c8:	00000030 	andeq	r0, r0, r0, lsr r0
 7cc:	000084c0 	andeq	r8, r0, r0, asr #9
 7d0:	000084b0 			; <UNDEFINED> instruction: 0x000084b0

000007d4 <frame_dummy>:
 7d4:	e59f0034 	ldr	r0, [pc, #52]	; 810 <frame_dummy+0x3c>
 7d8:	e92d4008 	push	{r3, lr}
 7dc:	e08f0000 	add	r0, pc, r0
 7e0:	e5902000 	ldr	r2, [r0]
 7e4:	e59f3028 	ldr	r3, [pc, #40]	; 814 <frame_dummy+0x40>
 7e8:	e3520000 	cmp	r2, #0
 7ec:	e08f3003 	add	r3, pc, r3
 7f0:	0a000004 	beq	808 <frame_dummy+0x34>
 7f4:	e59f201c 	ldr	r2, [pc, #28]	; 818 <frame_dummy+0x44>
 7f8:	e7933002 	ldr	r3, [r3, r2]
 7fc:	e3530000 	cmp	r3, #0
 800:	0a000000 	beq	808 <frame_dummy+0x34>
 804:	e12fff33 	blx	r3
 808:	e8bd4008 	pop	{r3, lr}
 80c:	eaffffbf 	b	710 <register_tm_clones>
 810:	00008344 	andeq	r8, r0, r4, asr #6
 814:	00008420 	andeq	r8, r0, r0, lsr #8
 818:	00000044 	andeq	r0, r0, r4, asr #32

0000081c <add>:
 81c:	e52db004 	push	{fp}		; (str fp, [sp, #-4]!)
 820:	e28db000 	add	fp, sp, #0
 824:	e24dd00c 	sub	sp, sp, #12
 828:	e50b0008 	str	r0, [fp, #-8]
 82c:	e50b100c 	str	r1, [fp, #-12]
 830:	e51b2008 	ldr	r2, [fp, #-8]
 834:	e51b300c 	ldr	r3, [fp, #-12]
 838:	e0823003 	add	r3, r2, r3
 83c:	e1a00003 	mov	r0, r3
 840:	e24bd000 	sub	sp, fp, #0
 844:	e49db004 	pop	{fp}		; (ldr fp, [sp], #4)
 848:	e12fff1e 	bx	lr

0000084c <sub>:
 84c:	e52db004 	push	{fp}		; (str fp, [sp, #-4]!)
 850:	e28db000 	add	fp, sp, #0
 854:	e24dd00c 	sub	sp, sp, #12
 858:	e50b0008 	str	r0, [fp, #-8]
 85c:	e50b100c 	str	r1, [fp, #-12]
 860:	e51b2008 	ldr	r2, [fp, #-8]
 864:	e51b300c 	ldr	r3, [fp, #-12]
 868:	e0633002 	rsb	r3, r3, r2
 86c:	e1a00003 	mov	r0, r3
 870:	e24bd000 	sub	sp, fp, #0
 874:	e49db004 	pop	{fp}		; (ldr fp, [sp], #4)
 878:	e12fff1e 	bx	lr

0000087c <mul>:
 87c:	e52db004 	push	{fp}		; (str fp, [sp, #-4]!)
 880:	e28db000 	add	fp, sp, #0
 884:	e24dd00c 	sub	sp, sp, #12
 888:	e50b0008 	str	r0, [fp, #-8]
 88c:	e50b100c 	str	r1, [fp, #-12]
 890:	e51b3008 	ldr	r3, [fp, #-8]
 894:	e51b200c 	ldr	r2, [fp, #-12]
 898:	e0030392 	mul	r3, r2, r3
 89c:	e1a00003 	mov	r0, r3
 8a0:	e24bd000 	sub	sp, fp, #0
 8a4:	e49db004 	pop	{fp}		; (ldr fp, [sp], #4)
 8a8:	e12fff1e 	bx	lr

000008ac <math_op>:
 8ac:	e92d4810 	push	{r4, fp, lr}
 8b0:	e28db008 	add	fp, sp, #8
 8b4:	e24dd02c 	sub	sp, sp, #44	; 0x2c
 8b8:	e50b0028 	str	r0, [fp, #-40]	; 0xffffffd8
 8bc:	e50b102c 	str	r1, [fp, #-44]	; 0xffffffd4
 8c0:	e50b2030 	str	r2, [fp, #-48]	; 0xffffffd0
 8c4:	e59f40fc 	ldr	r4, [pc, #252]	; 9c8 <math_op+0x11c>
 8c8:	e08f4004 	add	r4, pc, r4
 8cc:	e51b3028 	ldr	r3, [fp, #-40]	; 0xffffffd8
 8d0:	e3530001 	cmp	r3, #1
 8d4:	0a000007 	beq	8f8 <math_op+0x4c>
 8d8:	e3530002 	cmp	r3, #2
 8dc:	0a000009 	beq	908 <math_op+0x5c>
 8e0:	e3530000 	cmp	r3, #0
 8e4:	1a00000b 	bne	918 <math_op+0x6c>
 8e8:	e59f30dc 	ldr	r3, [pc, #220]	; 9cc <math_op+0x120>
 8ec:	e7943003 	ldr	r3, [r4, r3]
 8f0:	e50b3010 	str	r3, [fp, #-16]
 8f4:	ea000007 	b	918 <math_op+0x6c>
 8f8:	e59f30d0 	ldr	r3, [pc, #208]	; 9d0 <math_op+0x124>
 8fc:	e7943003 	ldr	r3, [r4, r3]
 900:	e50b3010 	str	r3, [fp, #-16]
 904:	ea000003 	b	918 <math_op+0x6c>
 908:	e59f30c4 	ldr	r3, [pc, #196]	; 9d4 <math_op+0x128>
 90c:	e7943003 	ldr	r3, [r4, r3]
 910:	e50b3010 	str	r3, [fp, #-16]
 914:	e1a00000 	nop			; (mov r0, r0)
 918:	e59f30b8 	ldr	r3, [pc, #184]	; 9d8 <math_op+0x12c>
 91c:	e7943003 	ldr	r3, [r4, r3]
 920:	e59f20a4 	ldr	r2, [pc, #164]	; 9cc <math_op+0x120>
 924:	e7942002 	ldr	r2, [r4, r2]
 928:	e5832000 	str	r2, [r3]
 92c:	e59f30a4 	ldr	r3, [pc, #164]	; 9d8 <math_op+0x12c>
 930:	e7943003 	ldr	r3, [r4, r3]
 934:	e5933000 	ldr	r3, [r3]
 938:	e1a00003 	mov	r0, r3
 93c:	e3a01000 	mov	r1, #0
 940:	e3a02004 	mov	r2, #4
 944:	ebffff4d 	bl	680 <_init+0x74>
 948:	e59f3088 	ldr	r3, [pc, #136]	; 9d8 <math_op+0x12c>
 94c:	e7943003 	ldr	r3, [r4, r3]
 950:	e5933000 	ldr	r3, [r3]
 954:	e1a00003 	mov	r0, r3
 958:	e59f306c 	ldr	r3, [pc, #108]	; 9cc <math_op+0x120>
 95c:	e7943003 	ldr	r3, [r4, r3]
 960:	e1a01003 	mov	r1, r3
 964:	e3a02004 	mov	r2, #4
 968:	ebffff3b 	bl	65c <_init+0x50>
 96c:	e3a00014 	mov	r0, #20
 970:	ebffff3c 	bl	668 <_init+0x5c>
 974:	e1a03000 	mov	r3, r0
 978:	e50b3014 	str	r3, [fp, #-20]	; 0xffffffec
 97c:	e51b3014 	ldr	r3, [fp, #-20]	; 0xffffffec
 980:	e2833004 	add	r3, r3, #4
 984:	e59f2044 	ldr	r2, [pc, #68]	; 9d0 <math_op+0x124>
 988:	e7942002 	ldr	r2, [r4, r2]
 98c:	e5832000 	str	r2, [r3]
 990:	e51b0014 	ldr	r0, [fp, #-20]	; 0xffffffec
 994:	ebffff2d 	bl	650 <_init+0x44>
 998:	e59f3034 	ldr	r3, [pc, #52]	; 9d4 <math_op+0x128>
 99c:	e7943003 	ldr	r3, [r4, r3]
 9a0:	e50b301c 	str	r3, [fp, #-28]	; 0xffffffe4
 9a4:	e51b3010 	ldr	r3, [fp, #-16]
 9a8:	e51b002c 	ldr	r0, [fp, #-44]	; 0xffffffd4
 9ac:	e51b1030 	ldr	r1, [fp, #-48]	; 0xffffffd0
 9b0:	e12fff33 	blx	r3
 9b4:	e50b0018 	str	r0, [fp, #-24]	; 0xffffffe8
 9b8:	e51b3018 	ldr	r3, [fp, #-24]	; 0xffffffe8
 9bc:	e1a00003 	mov	r0, r3
 9c0:	e24bd008 	sub	sp, fp, #8
 9c4:	e8bd8810 	pop	{r4, fp, pc}
 9c8:	00008344 	andeq	r8, r0, r4, asr #6
 9cc:	00000038 	andeq	r0, r0, r8, lsr r0
 9d0:	0000004c 	andeq	r0, r0, ip, asr #32
 9d4:	00000040 	andeq	r0, r0, r0, asr #32
 9d8:	00000050 	andeq	r0, r0, r0, asr r0

000009dc <display>:
 9dc:	e92d4800 	push	{fp, lr}
 9e0:	e28db004 	add	fp, sp, #4
 9e4:	e24dd008 	sub	sp, sp, #8
 9e8:	e50b0008 	str	r0, [fp, #-8]
 9ec:	e59f3014 	ldr	r3, [pc, #20]	; a08 <display+0x2c>
 9f0:	e08f3003 	add	r3, pc, r3
 9f4:	e1a00003 	mov	r0, r3
 9f8:	e51b1008 	ldr	r1, [fp, #-8]
 9fc:	ebffff10 	bl	644 <_init+0x38>
 a00:	e24bd004 	sub	sp, fp, #4
 a04:	e8bd8800 	pop	{fp, pc}
 a08:	0000007c 	andeq	r0, r0, ip, ror r0

00000a0c <add_and_mul>:
 a0c:	e92d4800 	push	{fp, lr}
 a10:	e28db004 	add	fp, sp, #4
 a14:	e24dd018 	sub	sp, sp, #24
 a18:	e50b0018 	str	r0, [fp, #-24]	; 0xffffffe8
 a1c:	e51b0018 	ldr	r0, [fp, #-24]	; 0xffffffe8
 a20:	e3a0100a 	mov	r1, #10
 a24:	ebffff03 	bl	638 <_init+0x2c>
 a28:	e50b0008 	str	r0, [fp, #-8]
 a2c:	e51b0018 	ldr	r0, [fp, #-24]	; 0xffffffe8
 a30:	e51b1008 	ldr	r1, [fp, #-8]
 a34:	ebfffeff 	bl	638 <_init+0x2c>
 a38:	e50b000c 	str	r0, [fp, #-12]
 a3c:	e51b0018 	ldr	r0, [fp, #-24]	; 0xffffffe8
 a40:	e51b1008 	ldr	r1, [fp, #-8]
 a44:	ebffff10 	bl	68c <_init+0x80>
 a48:	e50b0010 	str	r0, [fp, #-16]
 a4c:	e51b000c 	ldr	r0, [fp, #-12]
 a50:	e51b1010 	ldr	r1, [fp, #-16]
 a54:	ebffff0c 	bl	68c <_init+0x80>
 a58:	e50b0014 	str	r0, [fp, #-20]	; 0xffffffec
 a5c:	e51b3014 	ldr	r3, [fp, #-20]	; 0xffffffec
 a60:	e1a00003 	mov	r0, r3
 a64:	e24bd004 	sub	sp, fp, #4
 a68:	e8bd8800 	pop	{fp, pc}

Disassembly of section .fini:

00000a6c <_fini>:
 a6c:	e92d4008 	push	{r3, lr}
 a70:	e8bd8008 	pop	{r3, pc}

Disassembly of section .rodata:

00000a74 <.rodata>:
 a74:	3a67736d 	bcc	19dd830 <__bss_end__+0x19d4bbc>
 a78:	0a732520 	beq	1cc9f00 <__bss_end__+0x1cc128c>
 a7c:	00000000 	andeq	r0, r0, r0

Disassembly of section .ARM.extab:

00000a80 <.ARM.extab>:
 a80:	8101b108 	tsthi	r1, r8, lsl #2
 a84:	8400b0b0 	strhi	fp, [r0], #-176	; 0xffffff50
 a88:	00000000 	andeq	r0, r0, r0
 a8c:	8101b108 	tsthi	r1, r8, lsl #2
 a90:	8400b0b0 	strhi	fp, [r0], #-176	; 0xffffff50
 a94:	00000000 	andeq	r0, r0, r0
 a98:	8101b108 	tsthi	r1, r8, lsl #2
 a9c:	8400b0b0 	strhi	fp, [r0], #-176	; 0xffffff50
 aa0:	00000000 	andeq	r0, r0, r0
 aa4:	8101b108 	tsthi	r1, r8, lsl #2
 aa8:	8400b0b0 	strhi	fp, [r0], #-176	; 0xffffff50
 aac:	00000000 	andeq	r0, r0, r0
 ab0:	81019b41 	tsthi	r1, r1, asr #22
 ab4:	8481b0b0 	strhi	fp, [r1], #176	; 0xb0
 ab8:	00000000 	andeq	r0, r0, r0
 abc:	81019b40 	tsthi	r1, r0, asr #22
 ac0:	8480b0b0 	strhi	fp, [r0], #176	; 0xb0
 ac4:	00000000 	andeq	r0, r0, r0
 ac8:	81019b40 	tsthi	r1, r0, asr #22
 acc:	8480b0b0 	strhi	fp, [r0], #176	; 0xb0
 ad0:	00000000 	andeq	r0, r0, r0

Disassembly of section .ARM.exidx:

00000ad4 <.ARM.exidx>:
 ad4:	7ffffbe8 	svcvc	0x00fffbe8
 ad8:	7fffffa8 	svcvc	0x00ffffa8
 adc:	7ffffc34 	svcvc	0x00fffc34
 ae0:	7fffffac 	svcvc	0x00ffffac
 ae4:	7ffffc88 	svcvc	0x00fffc88
 ae8:	7fffffb0 	svcvc	0x00ffffb0
 aec:	7ffffce8 	svcvc	0x00fffce8
 af0:	7fffffb4 	svcvc	0x00ffffb4
 af4:	7ffffd28 	svcvc	0x00fffd28
 af8:	809b8080 	addshi	r8, fp, r0, lsl #1
 afc:	7ffffdb0 	svcvc	0x00fffdb0
 b00:	7fffffb0 	svcvc	0x00ffffb0
 b04:	7ffffed8 	svcvc	0x00fffed8
 b08:	7fffffb4 	svcvc	0x00ffffb4
 b0c:	7fffff00 	svcvc	0x00ffff00
 b10:	7fffffb8 	svcvc	0x00ffffb8
 b14:	7fffff58 	svcvc	0x00ffff58
 b18:	00000001 	andeq	r0, r0, r1

Disassembly of section .eh_frame:

00000b1c <__FRAME_END__>:
 b1c:	00000000 	andeq	r0, r0, r0

Disassembly of section .init_array:

00008b20 <__frame_dummy_init_array_entry>:
    8b20:	000007d4 	ldrdeq	r0, [r0], -r4

Disassembly of section .fini_array:

00008b24 <__do_global_dtors_aux_fini_array_entry>:
    8b24:	0000076c 	andeq	r0, r0, ip, ror #14

Disassembly of section .jcr:

00008b28 <__JCR_END__>:
    8b28:	00000000 	andeq	r0, r0, r0

Disassembly of section .dynamic:

00008b2c <.dynamic>:
    8b2c:	00000001 	andeq	r0, r0, r1
    8b30:	000000f4 	strdeq	r0, [r0], -r4
    8b34:	00000001 	andeq	r0, r0, r1
    8b38:	00000102 	andeq	r0, r0, r2, lsl #2
    8b3c:	0000000c 	andeq	r0, r0, ip
    8b40:	0000060c 	andeq	r0, r0, ip, lsl #12
    8b44:	0000000d 	andeq	r0, r0, sp
    8b48:	00000a6c 	andeq	r0, r0, ip, ror #20
    8b4c:	00000019 	andeq	r0, r0, r9, lsl r0
    8b50:	00008b20 	andeq	r8, r0, r0, lsr #22
    8b54:	0000001b 	andeq	r0, r0, fp, lsl r0
    8b58:	00000004 	andeq	r0, r0, r4
    8b5c:	0000001a 	andeq	r0, r0, sl, lsl r0
    8b60:	00008b24 	andeq	r8, r0, r4, lsr #22
    8b64:	0000001c 	andeq	r0, r0, ip, lsl r0
    8b68:	00000004 	andeq	r0, r0, r4
    8b6c:	00000004 	andeq	r0, r0, r4
    8b70:	000000d4 	ldrdeq	r0, [r0], -r4
    8b74:	00000005 	andeq	r0, r0, r5
    8b78:	0000038c 	andeq	r0, r0, ip, lsl #7
    8b7c:	00000006 	andeq	r0, r0, r6
    8b80:	0000019c 	muleq	r0, ip, r1
    8b84:	0000000a 	andeq	r0, r0, sl
    8b88:	00000158 	andeq	r0, r0, r8, asr r1
    8b8c:	0000000b 	andeq	r0, r0, fp
    8b90:	00000010 	andeq	r0, r0, r0, lsl r0
    8b94:	00000003 	andeq	r0, r0, r3
    8b98:	00008c14 	andeq	r8, r0, r4, lsl ip
    8b9c:	00000002 	andeq	r0, r0, r2
    8ba0:	00000048 	andeq	r0, r0, r8, asr #32
    8ba4:	00000014 	andeq	r0, r0, r4, lsl r0
    8ba8:	00000011 	andeq	r0, r0, r1, lsl r0
    8bac:	00000017 	andeq	r0, r0, r7, lsl r0
    8bb0:	000005c4 	andeq	r0, r0, r4, asr #11
    8bb4:	00000011 	andeq	r0, r0, r1, lsl r0
    8bb8:	00000564 	andeq	r0, r0, r4, ror #10
    8bbc:	00000012 	andeq	r0, r0, r2, lsl r0
    8bc0:	00000060 	andeq	r0, r0, r0, rrx
    8bc4:	00000013 	andeq	r0, r0, r3, lsl r0
    8bc8:	00000008 	andeq	r0, r0, r8
    8bcc:	6ffffffe 	svcvs	0x00fffffe
    8bd0:	00000524 	andeq	r0, r0, r4, lsr #10
    8bd4:	6fffffff 	svcvs	0x00ffffff
    8bd8:	00000002 	andeq	r0, r0, r2
    8bdc:	6ffffff0 	svcvs	0x00fffff0
    8be0:	000004e4 	andeq	r0, r0, r4, ror #9
    8be4:	6ffffffa 	svcvs	0x00fffffa
    8be8:	00000003 	andeq	r0, r0, r3
	...

Disassembly of section .got:

00008c14 <.got>:
    8c14:	00008b2c 	andeq	r8, r0, ip, lsr #22
	...
    8c20:	00000618 	andeq	r0, r0, r8, lsl r6
    8c24:	00000618 	andeq	r0, r0, r8, lsl r6
    8c28:	00000618 	andeq	r0, r0, r8, lsl r6
    8c2c:	00000618 	andeq	r0, r0, r8, lsl r6
    8c30:	00000618 	andeq	r0, r0, r8, lsl r6
    8c34:	00000618 	andeq	r0, r0, r8, lsl r6
    8c38:	00000618 	andeq	r0, r0, r8, lsl r6
    8c3c:	00000618 	andeq	r0, r0, r8, lsl r6
    8c40:	00000618 	andeq	r0, r0, r8, lsl r6
	...

Disassembly of section .data:

00008c68 <__dso_handle>:
    8c68:	00008c68 	andeq	r8, r0, r8, ror #24

Disassembly of section .bss:

00008c6c <__bss_start>:
    8c6c:	00000000 	andeq	r0, r0, r0

00008c70 <global_func>:
    8c70:	00000000 	andeq	r0, r0, r0

Disassembly of section .comment:

00000000 <.comment>:
   0:	3a434347 	bcc	10d0d24 <__bss_end__+0x10c80b0>
   4:	6f532820 	svcvs	0x00532820
   8:	65637275 	strbvs	r7, [r3, #-629]!	; 0xfffffd8b
   c:	43207972 	teqmi	r0, #1867776	; 0x1c8000
  10:	4265646f 	rsbmi	r6, r5, #1862270976	; 0x6f000000
  14:	68636e65 	stmdavs	r3!, {r0, r2, r5, r6, r9, sl, fp, sp, lr}^
  18:	74694c20 	strbtvc	r4, [r9], #-3104	; 0xfffff3e0
  1c:	30322065 	eorscc	r2, r2, r5, rrx
  20:	302e3431 	eorcc	r3, lr, r1, lsr r4
  24:	39322d35 	ldmdbcc	r2!, {r0, r2, r4, r5, r8, sl, fp, sp}
  28:	2e342029 	cdpcs	0, 3, cr2, cr4, cr9, {1}
  2c:	20332e38 	eorscs	r2, r3, r8, lsr lr
  30:	34313032 	ldrtcc	r3, [r1], #-50	; 0xffffffce
  34:	30323330 	eorscc	r3, r2, r0, lsr r3
  38:	72702820 	rsbsvc	r2, r0, #32, 16	; 0x200000
  3c:	6c657265 	sfmvs	f7, 2, [r5], #-404	; 0xfffffe6c
  40:	65736165 	ldrbvs	r6, [r3, #-357]!	; 0xfffffe9b
  44:	Address 0x00000044 is out of bounds.


Disassembly of section .ARM.attributes:

00000000 <.ARM.attributes>:
   0:	00002a41 	andeq	r2, r0, r1, asr #20
   4:	61656100 	cmnvs	r5, r0, lsl #2
   8:	01006962 	tsteq	r0, r2, ror #18
   c:	00000020 	andeq	r0, r0, r0, lsr #32
  10:	45543505 	ldrbmi	r3, [r4, #-1285]	; 0xfffffafb
  14:	08040600 	stmdaeq	r4, {r9, sl}
  18:	12010901 	andne	r0, r1, #16384	; 0x4000
  1c:	14011304 	strne	r1, [r1], #-772	; 0xfffffcfc
  20:	17011501 	strne	r1, [r1, -r1, lsl #10]
  24:	19011803 	stmdbne	r1, {r0, r1, fp, ip}
  28:	Address 0x00000028 is out of bounds.


Disassembly of section .debug_aranges:

00000000 <.debug_aranges>:
   0:	0000001c 	andeq	r0, r0, ip, lsl r0
   4:	00000002 	andeq	r0, r0, r2
   8:	00040000 	andeq	r0, r4, r0
   c:	00000000 	andeq	r0, r0, r0
  10:	0000081c 	andeq	r0, r0, ip, lsl r8
  14:	00000250 	andeq	r0, r0, r0, asr r2
	...

Disassembly of section .debug_info:

00000000 <.debug_info>:
   0:	00000244 	andeq	r0, r0, r4, asr #4
   4:	00000004 	andeq	r0, r0, r4
   8:	01040000 	mrseq	r0, (UNDEF: 4)
   c:	000000ae 	andeq	r0, r0, lr, lsr #1
  10:	00008f01 	andeq	r8, r0, r1, lsl #30
  14:	00002900 	andeq	r2, r0, r0, lsl #18
  18:	00081c00 	andeq	r1, r8, r0, lsl #24
  1c:	00025000 	andeq	r5, r2, r0
  20:	00000000 	andeq	r0, r0, r0
  24:	07040200 	streq	r0, [r4, -r0, lsl #4]
  28:	0000007a 	andeq	r0, r0, sl, ror r0
  2c:	08080102 	stmdaeq	r8, {r1, r8}
  30:	02000000 	andeq	r0, r0, #0
  34:	00160702 	andseq	r0, r6, r2, lsl #14
  38:	04020000 	streq	r0, [r2], #-0
  3c:	00007507 	andeq	r7, r0, r7, lsl #10
  40:	06010200 	streq	r0, [r1], -r0, lsl #4
  44:	0000000a 	andeq	r0, r0, sl
  48:	15050202 	strne	r0, [r5, #-514]	; 0xfffffdfe
  4c:	03000001 	movweq	r0, #1
  50:	6e690504 	cdpvs	5, 6, cr0, cr9, cr4, {0}
  54:	08020074 	stmdaeq	r2, {r2, r4, r5, r6}
  58:	0000a005 	andeq	sl, r0, r5
  5c:	07080200 	streq	r0, [r8, -r0, lsl #4]
  60:	00000070 	andeq	r0, r0, r0, ror r0
  64:	a5050402 	strge	r0, [r5, #-1026]	; 0xfffffbfe
  68:	02000000 	andeq	r0, r0, #0
  6c:	00970704 	addseq	r0, r7, r4, lsl #14
  70:	04040000 	streq	r0, [r4], #-0
  74:	00000078 	andeq	r0, r0, r8, ror r0
  78:	11080102 	tstne	r8, r2, lsl #2
  7c:	05000000 	streq	r0, [r0, #-0]
  80:	00646461 	rsbeq	r6, r4, r1, ror #8
  84:	004f0501 	subeq	r0, pc, r1, lsl #10
  88:	081c0000 	ldmdaeq	ip, {}	; <UNPREDICTABLE>
  8c:	00300000 	eorseq	r0, r0, r0
  90:	9c010000 	stcls	0, cr0, [r1], {-0}
  94:	000000b1 	strheq	r0, [r0], -r1
  98:	01006106 	tsteq	r0, r6, lsl #2
  9c:	00004f05 	andeq	r4, r0, r5, lsl #30
  a0:	74910200 	ldrvc	r0, [r1], #512	; 0x200
  a4:	01006206 	tsteq	r0, r6, lsl #4
  a8:	00004f05 	andeq	r4, r0, r5, lsl #30
  ac:	70910200 	addsvc	r0, r1, r0, lsl #4
  b0:	75730500 	ldrbvc	r0, [r3, #-1280]!	; 0xfffffb00
  b4:	0a010062 	beq	40244 <__bss_end__+0x375d0>
  b8:	0000004f 	andeq	r0, r0, pc, asr #32
  bc:	0000084c 	andeq	r0, r0, ip, asr #16
  c0:	00000030 	andeq	r0, r0, r0, lsr r0
  c4:	00e39c01 	rsceq	r9, r3, r1, lsl #24
  c8:	61060000 	mrsvs	r0, (UNDEF: 6)
  cc:	4f0a0100 	svcmi	0x000a0100
  d0:	02000000 	andeq	r0, r0, #0
  d4:	62067491 	andvs	r7, r6, #-1862270976	; 0x91000000
  d8:	4f0a0100 	svcmi	0x000a0100
  dc:	02000000 	andeq	r0, r0, #0
  e0:	05007091 	streq	r7, [r0, #-145]	; 0xffffff6f
  e4:	006c756d 	rsbeq	r7, ip, sp, ror #10
  e8:	004f0f01 	subeq	r0, pc, r1, lsl #30
  ec:	087c0000 	ldmdaeq	ip!, {}^	; <UNPREDICTABLE>
  f0:	00300000 	eorseq	r0, r0, r0
  f4:	9c010000 	stcls	0, cr0, [r1], {-0}
  f8:	00000115 	andeq	r0, r0, r5, lsl r1
  fc:	01006106 	tsteq	r0, r6, lsl #2
 100:	00004f0f 	andeq	r4, r0, pc, lsl #30
 104:	74910200 	ldrvc	r0, [r1], #512	; 0x200
 108:	01006206 	tsteq	r0, r6, lsl #4
 10c:	00004f0f 	andeq	r4, r0, pc, lsl #30
 110:	70910200 	addsvc	r0, r1, r0, lsl #4
 114:	00000700 	andeq	r0, r0, r0, lsl #14
 118:	16010000 	strne	r0, [r1], -r0
 11c:	0000004f 	andeq	r0, r0, pc, asr #32
 120:	000008ac 	andeq	r0, r0, ip, lsr #17
 124:	00000130 	andeq	r0, r0, r0, lsr r1
 128:	018c9c01 	orreq	r9, ip, r1, lsl #24
 12c:	6f060000 	svcvs	0x00060000
 130:	16010070 			; <UNDEFINED> instruction: 0x16010070
 134:	0000004f 	andeq	r0, r0, pc, asr #32
 138:	06549102 	ldrbeq	r9, [r4], -r2, lsl #2
 13c:	16010061 	strne	r0, [r1], -r1, rrx
 140:	0000004f 	andeq	r0, r0, pc, asr #32
 144:	06509102 	ldrbeq	r9, [r0], -r2, lsl #2
 148:	16010062 	strne	r0, [r1], -r2, rrx
 14c:	0000004f 	andeq	r0, r0, pc, asr #32
 150:	084c9102 	stmdaeq	ip, {r1, r8, ip, pc}^
 154:	00000126 	andeq	r0, r0, r6, lsr #2
 158:	01a01801 	lsleq	r1, r1, #16
 15c:	91020000 	mrsls	r0, (UNDEF: 2)
 160:	010a086c 	tsteq	sl, ip, ror #16
 164:	2b010000 	blcs	4016c <__bss_end__+0x374f8>
 168:	000001a6 	andeq	r0, r0, r6, lsr #3
 16c:	08689102 	stmdaeq	r8!, {r1, r8, ip, pc}^
 170:	00000064 	andeq	r0, r0, r4, rrx
 174:	01ac2f01 			; <UNDEFINED> instruction: 0x01ac2f01
 178:	91020000 	mrsls	r0, (UNDEF: 2)
 17c:	65720958 	ldrbvs	r0, [r2, #-2392]!	; 0xfffff6a8
 180:	32010074 	andcc	r0, r1, #116	; 0x74
 184:	0000004f 	andeq	r0, r0, pc, asr #32
 188:	00649102 	rsbeq	r9, r4, r2, lsl #2
 18c:	00004f0a 	andeq	r4, r0, sl, lsl #30
 190:	0001a000 	andeq	sl, r1, r0
 194:	004f0b00 	subeq	r0, pc, r0, lsl #22
 198:	4f0b0000 	svcmi	0x000b0000
 19c:	00000000 	andeq	r0, r0, r0
 1a0:	018c0404 	orreq	r0, ip, r4, lsl #8
 1a4:	04040000 	streq	r0, [r4], #-0
 1a8:	000001a0 	andeq	r0, r0, r0, lsr #3
 1ac:	0001a00c 	andeq	sl, r1, ip
 1b0:	0001bc00 	andeq	fp, r1, r0, lsl #24
 1b4:	006b0d00 	rsbeq	r0, fp, r0, lsl #26
 1b8:	00020000 	andeq	r0, r2, r0
 1bc:	0000870e 	andeq	r8, r0, lr, lsl #14
 1c0:	dc360100 	ldfles	f0, [r6], #-0
 1c4:	30000009 	andcc	r0, r0, r9
 1c8:	01000000 	mrseq	r0, (UNDEF: 0)
 1cc:	0001de9c 	muleq	r1, ip, lr
 1d0:	00730600 	rsbseq	r0, r3, r0, lsl #12
 1d4:	00723601 	rsbseq	r3, r2, r1, lsl #12
 1d8:	91020000 	mrsls	r0, (UNDEF: 2)
 1dc:	58070074 	stmdapl	r7, {r2, r4, r5, r6}
 1e0:	01000000 	mrseq	r0, (UNDEF: 0)
 1e4:	00004f3b 	andeq	r4, r0, fp, lsr pc
 1e8:	000a0c00 	andeq	r0, sl, r0, lsl #24
 1ec:	00006000 	andeq	r6, r0, r0
 1f0:	369c0100 	ldrcc	r0, [ip], r0, lsl #2
 1f4:	06000002 	streq	r0, [r0], -r2
 1f8:	3b010061 	blcc	40384 <__bss_end__+0x37710>
 1fc:	0000004f 	andeq	r0, r0, pc, asr #32
 200:	09649102 	stmdbeq	r4!, {r1, r8, ip, pc}^
 204:	3d010062 	stccc	0, cr0, [r1, #-392]	; 0xfffffe78
 208:	0000004f 	andeq	r0, r0, pc, asr #32
 20c:	09749102 	ldmdbeq	r4!, {r1, r8, ip, pc}^
 210:	3e010063 	cdpcc	0, 0, cr0, cr1, cr3, {3}
 214:	0000004f 	andeq	r0, r0, pc, asr #32
 218:	09709102 	ldmdbeq	r0!, {r1, r8, ip, pc}^
 21c:	3f010064 	svccc	0x00010064
 220:	0000004f 	andeq	r0, r0, pc, asr #32
 224:	096c9102 	stmdbeq	ip!, {r1, r8, ip, pc}^
 228:	00746572 	rsbseq	r6, r4, r2, ror r5
 22c:	004f4001 	subeq	r4, pc, r1
 230:	91020000 	mrsls	r0, (UNDEF: 2)
 234:	1f0f0068 	svcne	0x000f0068
 238:	01000001 	tsteq	r0, r1
 23c:	0001a014 	andeq	sl, r1, r4, lsl r0
 240:	70030500 	andvc	r0, r3, r0, lsl #10
 244:	0000008c 	andeq	r0, r0, ip, lsl #1

Disassembly of section .debug_abbrev:

00000000 <.debug_abbrev>:
   0:	25011101 	strcs	r1, [r1, #-257]	; 0xfffffeff
   4:	030b130e 	movweq	r1, #45838	; 0xb30e
   8:	110e1b0e 	tstne	lr, lr, lsl #22
   c:	10061201 	andne	r1, r6, r1, lsl #4
  10:	02000017 	andeq	r0, r0, #23
  14:	0b0b0024 	bleq	2c00ac <__bss_end__+0x2b7438>
  18:	0e030b3e 	vmoveq.16	d3[0], r0
  1c:	24030000 	strcs	r0, [r3], #-0
  20:	3e0b0b00 	vmlacc.f64	d0, d11, d0
  24:	0008030b 	andeq	r0, r8, fp, lsl #6
  28:	000f0400 	andeq	r0, pc, r0, lsl #8
  2c:	13490b0b 	movtne	r0, #39691	; 0x9b0b
  30:	2e050000 	cdpcs	0, 0, cr0, cr5, cr0, {0}
  34:	03193f01 	tsteq	r9, #1, 30
  38:	3b0b3a08 	blcc	2ce860 <__bss_end__+0x2c5bec>
  3c:	4919270b 	ldmdbmi	r9, {r0, r1, r3, r8, r9, sl, sp}
  40:	12011113 	andne	r1, r1, #-1073741820	; 0xc0000004
  44:	97184006 	ldrls	r4, [r8, -r6]
  48:	13011942 	movwne	r1, #6466	; 0x1942
  4c:	05060000 	streq	r0, [r6, #-0]
  50:	3a080300 	bcc	200c58 <__bss_end__+0x1f7fe4>
  54:	490b3b0b 	stmdbmi	fp, {r0, r1, r3, r8, r9, fp, ip, sp}
  58:	00180213 	andseq	r0, r8, r3, lsl r2
  5c:	012e0700 	teqeq	lr, r0, lsl #14
  60:	0e03193f 	mcreq	9, 0, r1, cr3, cr15, {1}
  64:	0b3b0b3a 	bleq	ec2d54 <__bss_end__+0xeba0e0>
  68:	13491927 	movtne	r1, #39207	; 0x9927
  6c:	06120111 			; <UNDEFINED> instruction: 0x06120111
  70:	42961840 	addsmi	r1, r6, #64, 16	; 0x400000
  74:	00130119 	andseq	r0, r3, r9, lsl r1
  78:	00340800 	eorseq	r0, r4, r0, lsl #16
  7c:	0b3a0e03 	bleq	e83890 <__bss_end__+0xe7ac1c>
  80:	13490b3b 	movtne	r0, #39739	; 0x9b3b
  84:	00001802 	andeq	r1, r0, r2, lsl #16
  88:	03003409 	movweq	r3, #1033	; 0x409
  8c:	3b0b3a08 	blcc	2ce8b4 <__bss_end__+0x2c5c40>
  90:	0213490b 	andseq	r4, r3, #180224	; 0x2c000
  94:	0a000018 	beq	fc <_init-0x510>
  98:	19270115 	stmdbne	r7!, {r0, r2, r4, r8}
  9c:	13011349 	movwne	r1, #4937	; 0x1349
  a0:	050b0000 	streq	r0, [fp, #-0]
  a4:	00134900 	andseq	r4, r3, r0, lsl #18
  a8:	01010c00 	tsteq	r1, r0, lsl #24
  ac:	13011349 	movwne	r1, #4937	; 0x1349
  b0:	210d0000 	mrscs	r0, (UNDEF: 13)
  b4:	2f134900 	svccs	0x00134900
  b8:	0e00000b 	cdpeq	0, 0, cr0, cr0, cr11, {0}
  bc:	193f012e 	ldmdbne	pc!, {r1, r2, r3, r5, r8}	; <UNPREDICTABLE>
  c0:	0b3a0e03 	bleq	e838d4 <__bss_end__+0xe7ac60>
  c4:	19270b3b 	stmdbne	r7!, {r0, r1, r3, r4, r5, r8, r9, fp}
  c8:	06120111 			; <UNDEFINED> instruction: 0x06120111
  cc:	42961840 	addsmi	r1, r6, #64, 16	; 0x400000
  d0:	00130119 	andseq	r0, r3, r9, lsl r1
  d4:	00340f00 	eorseq	r0, r4, r0, lsl #30
  d8:	0b3a0e03 	bleq	e838ec <__bss_end__+0xe7ac78>
  dc:	13490b3b 	movtne	r0, #39739	; 0x9b3b
  e0:	1802193f 	stmdane	r2, {r0, r1, r2, r3, r4, r5, r8, fp, ip}
  e4:	Address 0x000000e4 is out of bounds.


Disassembly of section .debug_line:

00000000 <.debug_line>:
   0:	00000056 	andeq	r0, r0, r6, asr r0
   4:	001e0002 	andseq	r0, lr, r2
   8:	01020000 	mrseq	r0, (UNDEF: 2)
   c:	000d0efb 	strdeq	r0, [sp], -fp
  10:	01010101 	tsteq	r1, r1, lsl #2
  14:	01000000 	mrseq	r0, (UNDEF: 0)
  18:	00010000 	andeq	r0, r1, r0
  1c:	696c796d 	stmdbvs	ip!, {r0, r2, r3, r5, r6, r8, fp, ip, sp, lr}^
  20:	00632e62 	rsbeq	r2, r3, r2, ror #28
  24:	00000000 	andeq	r0, r0, r0
  28:	1c020500 	cfstr32ne	mvfx0, [r2], {-0}
  2c:	17000008 	strne	r0, [r0, -r8]
  30:	9f85679f 	svcls	0x0085679f
  34:	679f8567 	ldrvs	r8, [pc, r7, ror #10]
  38:	67d9f587 	ldrbvs	pc, [r9, r7, lsl #11]	; <UNPREDICTABLE>
  3c:	67306730 			; <UNDEFINED> instruction: 0x67306730
  40:	08d79f31 	ldmeq	r7, {r0, r4, r5, r8, r9, sl, fp, ip, pc}^
  44:	4d9f8322 	ldcmi	3, cr8, [pc, #136]	; d4 <_init-0x538>
  48:	f52f9f68 			; <UNDEFINED> instruction: 0xf52f9f68
  4c:	83699f83 	cmnhi	r9, #524	; 0x20c
  50:	83838383 	orrhi	r8, r3, #201326594	; 0xc000002
  54:	0006022f 	andeq	r0, r6, pc, lsr #4
  58:	Address 0x00000058 is out of bounds.


Disassembly of section .debug_frame:

00000000 <.debug_frame>:
   0:	0000000c 	andeq	r0, r0, ip
   4:	ffffffff 			; <UNDEFINED> instruction: 0xffffffff
   8:	7c020001 	stcvc	0, cr0, [r2], {1}
   c:	000d0c0e 	andeq	r0, sp, lr, lsl #24
  10:	00000014 	andeq	r0, r0, r4, lsl r0
  14:	00000000 	andeq	r0, r0, r0
  18:	0000081c 	andeq	r0, r0, ip, lsl r8
  1c:	00000030 	andeq	r0, r0, r0, lsr r0
  20:	8b040e42 	blhi	103930 <__bss_end__+0xfacbc>
  24:	0b0d4201 	bleq	350830 <__bss_end__+0x347bbc>
  28:	00000014 	andeq	r0, r0, r4, lsl r0
  2c:	00000000 	andeq	r0, r0, r0
  30:	0000084c 	andeq	r0, r0, ip, asr #16
  34:	00000030 	andeq	r0, r0, r0, lsr r0
  38:	8b040e42 	blhi	103948 <__bss_end__+0xfacd4>
  3c:	0b0d4201 	bleq	350848 <__bss_end__+0x347bd4>
  40:	00000014 	andeq	r0, r0, r4, lsl r0
  44:	00000000 	andeq	r0, r0, r0
  48:	0000087c 	andeq	r0, r0, ip, ror r8
  4c:	00000030 	andeq	r0, r0, r0, lsr r0
  50:	8b040e42 	blhi	103960 <__bss_end__+0xfacec>
  54:	0b0d4201 	bleq	350860 <__bss_end__+0x347bec>
  58:	0000001c 	andeq	r0, r0, ip, lsl r0
  5c:	00000000 	andeq	r0, r0, r0
  60:	000008ac 	andeq	r0, r0, ip, lsr #17
  64:	00000130 	andeq	r0, r0, r0, lsr r1
  68:	840c0e42 	strhi	r0, [ip], #-3650	; 0xfffff1be
  6c:	8e028b03 	vmlahi.f64	d8, d2, d3
  70:	0b0c4201 	bleq	31087c <__bss_end__+0x307c08>
  74:	00000004 	andeq	r0, r0, r4
  78:	00000018 	andeq	r0, r0, r8, lsl r0
  7c:	00000000 	andeq	r0, r0, r0
  80:	000009dc 	ldrdeq	r0, [r0], -ip
  84:	00000030 	andeq	r0, r0, r0, lsr r0
  88:	8b080e42 	blhi	203998 <__bss_end__+0x1fad24>
  8c:	42018e02 	andmi	r8, r1, #2, 28
  90:	00040b0c 	andeq	r0, r4, ip, lsl #22
  94:	00000018 	andeq	r0, r0, r8, lsl r0
  98:	00000000 	andeq	r0, r0, r0
  9c:	00000a0c 	andeq	r0, r0, ip, lsl #20
  a0:	00000060 	andeq	r0, r0, r0, rrx
  a4:	8b080e42 	blhi	2039b4 <__bss_end__+0x1fad40>
  a8:	42018e02 	andmi	r8, r1, #2, 28
  ac:	00040b0c 	andeq	r0, r4, ip, lsl #22

Disassembly of section .debug_str:

00000000 <.debug_str>:
   0:	6874616d 	ldmdavs	r4!, {r0, r2, r3, r5, r6, r8, sp, lr}^
   4:	00706f5f 	rsbseq	r6, r0, pc, asr pc
   8:	69736e75 	ldmdbvs	r3!, {r0, r2, r4, r5, r6, r9, sl, fp, sp, lr}^
   c:	64656e67 	strbtvs	r6, [r5], #-3687	; 0xfffff199
  10:	61686320 	cmnvs	r8, r0, lsr #6
  14:	68730072 	ldmdavs	r3!, {r1, r4, r5, r6}^
  18:	2074726f 	rsbscs	r7, r4, pc, ror #4
  1c:	69736e75 	ldmdbvs	r3!, {r0, r2, r4, r5, r6, r9, sl, fp, sp, lr}^
  20:	64656e67 	strbtvs	r6, [r5], #-3687	; 0xfffff199
  24:	746e6920 	strbtvc	r6, [lr], #-2336	; 0xfffff6e0
  28:	6f682f00 	svcvs	0x00682f00
  2c:	642f656d 	strtvs	r6, [pc], #-1389	; 34 <_init-0x5d8>
  30:	6c676e6f 	stclvs	14, cr6, [r7], #-444	; 0xfffffe44
  34:	2f7a2e69 	svccs	0x007a2e69
  38:	65646f63 	strbvs	r6, [r4, #-3939]!	; 0xfffff09d
  3c:	6461672f 	strbtvs	r6, [r1], #-1839	; 0xfffff8d1
  40:	73746567 	cmnvc	r4, #432013312	; 0x19c00000
  44:	65646968 	strbvs	r6, [r4, #-2408]!	; 0xfffff698
  48:	69622f72 	stmdbvs	r2!, {r1, r4, r5, r6, r8, r9, sl, fp, sp}^
  4c:	7972616e 	ldmdbvc	r2!, {r1, r2, r3, r5, r6, r8, sp, lr}^
  50:	6d61732f 	stclvs	3, cr7, [r1, #-188]!	; 0xffffff44
  54:	00656c70 	rsbeq	r6, r5, r0, ror ip
  58:	5f646461 	svcpl	0x00646461
  5c:	5f646e61 	svcpl	0x00646e61
  60:	006c756d 	rsbeq	r7, ip, sp, ror #10
  64:	61727261 	cmnvs	r2, r1, ror #4
  68:	74735f79 	ldrbtvc	r5, [r3], #-3961	; 0xfffff087
  6c:	006b6361 	rsbeq	r6, fp, r1, ror #6
  70:	676e6f6c 	strbvs	r6, [lr, -ip, ror #30]!
  74:	6e6f6c20 	cdpvs	12, 6, cr6, cr15, cr0, {1}
  78:	6e752067 	cdpvs	0, 7, cr2, cr5, cr7, {3}
  7c:	6e676973 	mcrvs	9, 3, r6, cr7, cr3, {3}
  80:	69206465 	stmdbvs	r0!, {r0, r2, r5, r6, sl, sp, lr}
  84:	6400746e 	strvs	r7, [r0], #-1134	; 0xfffffb92
  88:	6c707369 	ldclvs	3, cr7, [r0], #-420	; 0xfffffe5c
  8c:	6d007961 	stcvs	9, cr7, [r0, #-388]	; 0xfffffe7c
  90:	62696c79 	rsbvs	r6, r9, #30976	; 0x7900
  94:	7300632e 	movwvc	r6, #814	; 0x32e
  98:	74657a69 	strbtvc	r7, [r5], #-2665	; 0xfffff597
  9c:	00657079 	rsbeq	r7, r5, r9, ror r0
  a0:	676e6f6c 	strbvs	r6, [lr, -ip, ror #30]!
  a4:	6e6f6c20 	cdpvs	12, 6, cr6, cr15, cr0, {1}
  a8:	6e692067 	cdpvs	0, 6, cr2, cr9, cr7, {3}
  ac:	4e470074 	mcrmi	0, 2, r0, cr7, cr4, {3}
  b0:	20432055 	subcs	r2, r3, r5, asr r0
  b4:	2e382e34 	mrccs	14, 1, r2, cr8, cr4, {1}
  b8:	30322033 	eorscc	r2, r2, r3, lsr r0
  bc:	33303431 	teqcc	r0, #822083584	; 0x31000000
  c0:	28203032 	stmdacs	r0!, {r1, r4, r5, ip, sp}
  c4:	72657270 	rsbvc	r7, r5, #112, 4
  c8:	61656c65 	cmnvs	r5, r5, ror #24
  cc:	20296573 	eorcs	r6, r9, r3, ror r5
  d0:	72616d2d 	rsbvc	r6, r1, #2880	; 0xb40
  d4:	613d6863 	teqvs	sp, r3, ror #16
  d8:	35766d72 	ldrbcc	r6, [r6, #-3442]!	; 0xfffff28e
  dc:	2d206574 	cfstr32cs	mvfx6, [r0, #-464]!	; 0xfffffe30
  e0:	736c746d 	cmnvc	ip, #1828716544	; 0x6d000000
  e4:	6169642d 	cmnvs	r9, sp, lsr #8
  e8:	7463656c 	strbtvc	r6, [r3], #-1388	; 0xfffffa94
  ec:	756e673d 	strbvc	r6, [lr, #-1853]!	; 0xfffff8c3
  f0:	20672d20 	rsbcs	r2, r7, r0, lsr #26
  f4:	4950662d 	ldmdbmi	r0, {r0, r2, r3, r5, r9, sl, sp, lr}^
  f8:	662d2043 	strtvs	r2, [sp], -r3, asr #32
  fc:	69776e75 	ldmdbvs	r7!, {r0, r2, r4, r5, r6, r9, sl, fp, sp, lr}^
 100:	742d646e 	strtvc	r6, [sp], #-1134	; 0xfffffb92
 104:	656c6261 	strbvs	r6, [ip, #-609]!	; 0xfffffd9f
 108:	72610073 	rsbvc	r0, r1, #115	; 0x73
 10c:	5f796172 	svcpl	0x00796172
 110:	70616568 	rsbvc	r6, r1, r8, ror #10
 114:	6f687300 	svcvs	0x00687300
 118:	69207472 	stmdbvs	r0!, {r1, r4, r5, r6, sl, ip, sp, lr}
 11c:	6700746e 	strvs	r7, [r0, -lr, ror #8]
 120:	61626f6c 	cmnvs	r2, ip, ror #30
 124:	75665f6c 	strbvc	r5, [r6, #-3948]!	; 0xfffff094
 128:	Address 0x00000128 is out of bounds.

